target datalayout = "e-m:e-p270:32:32-p271:32:32-p272:64:64-i64:64-i128:128-f80:128-n8:16:32:64-S128"
target triple = "x86_64-pc-linux-gnu"

%"class.llvm::MachineBlockFrequencyInfo" = type { %"class.std::unique_ptr" }
%"class.std::unique_ptr" = type { %"struct.std::__uniq_ptr_data" }
%"struct.std::__uniq_ptr_data" = type { %"class.std::__uniq_ptr_impl" }
%"class.std::__uniq_ptr_impl" = type { %"class.std::tuple" }
%"class.std::tuple" = type { %"struct.std::_Tuple_impl" }
%"struct.std::_Tuple_impl" = type { %"struct.std::_Head_base.23" }
%"struct.std::_Head_base.23" = type { ptr }
%"class.llvm::BlockFrequencyInfoImplBase" = type { ptr, %"class.std::vector.146", %"class.llvm::SparseBitVector", %"class.std::vector.154", %"class.std::__cxx11::list.159" }
%"class.std::vector.146" = type { %"struct.std::_Vector_base.147" }
%"struct.std::_Vector_base.147" = type { %"struct.std::_Vector_base<llvm::BlockFrequencyInfoImplBase::FrequencyData, std::allocator<llvm::BlockFrequencyInfoImplBase::FrequencyData>>::_Vector_impl" }
%"struct.std::_Vector_base<llvm::BlockFrequencyInfoImplBase::FrequencyData, std::allocator<llvm::BlockFrequencyInfoImplBase::FrequencyData>>::_Vector_impl" = type { %"struct.std::_Vector_base<llvm::BlockFrequencyInfoImplBase::FrequencyData, std::allocator<llvm::BlockFrequencyInfoImplBase::FrequencyData>>::_Vector_impl_data" }
%"struct.std::_Vector_base<llvm::BlockFrequencyInfoImplBase::FrequencyData, std::allocator<llvm::BlockFrequencyInfoImplBase::FrequencyData>>::_Vector_impl_data" = type { ptr, ptr, ptr }
%"class.llvm::SparseBitVector" = type { %"class.std::__cxx11::list", %"struct.std::_List_iterator" }
%"class.std::__cxx11::list" = type { %"class.std::__cxx11::_List_base" }
%"class.std::__cxx11::_List_base" = type { %"struct.std::__cxx11::_List_base<llvm::SparseBitVectorElement<>, std::allocator<llvm::SparseBitVectorElement<>>>::_List_impl" }
%"struct.std::__cxx11::_List_base<llvm::SparseBitVectorElement<>, std::allocator<llvm::SparseBitVectorElement<>>>::_List_impl" = type { %"struct.std::__detail::_List_node_header" }
%"struct.std::__detail::_List_node_header" = type { %"struct.std::__detail::_List_node_base", i64 }
%"struct.std::__detail::_List_node_base" = type { ptr, ptr }
%"struct.std::_List_iterator" = type { ptr }
%"class.std::vector.154" = type { %"struct.std::_Vector_base.155" }
%"struct.std::_Vector_base.155" = type { %"struct.std::_Vector_base<llvm::BlockFrequencyInfoImplBase::WorkingData, std::allocator<llvm::BlockFrequencyInfoImplBase::WorkingData>>::_Vector_impl" }
%"struct.std::_Vector_base<llvm::BlockFrequencyInfoImplBase::WorkingData, std::allocator<llvm::BlockFrequencyInfoImplBase::WorkingData>>::_Vector_impl" = type { %"struct.std::_Vector_base<llvm::BlockFrequencyInfoImplBase::WorkingData, std::allocator<llvm::BlockFrequencyInfoImplBase::WorkingData>>::_Vector_impl_data" }
%"struct.std::_Vector_base<llvm::BlockFrequencyInfoImplBase::WorkingData, std::allocator<llvm::BlockFrequencyInfoImplBase::WorkingData>>::_Vector_impl_data" = type { ptr, ptr, ptr }
%"class.std::__cxx11::list.159" = type { %"class.std::__cxx11::_List_base.160" }
%"class.std::__cxx11::_List_base.160" = type { %"struct.std::__cxx11::_List_base<llvm::BlockFrequencyInfoImplBase::LoopData, std::allocator<llvm::BlockFrequencyInfoImplBase::LoopData>>::_List_impl" }
%"struct.std::__cxx11::_List_base<llvm::BlockFrequencyInfoImplBase::LoopData, std::allocator<llvm::BlockFrequencyInfoImplBase::LoopData>>::_List_impl" = type { %"struct.std::__detail::_List_node_header" }
%"class.llvm::BlockFrequency" = type { i64 }
%"struct.llvm::BlockFrequencyInfoImplBase::FrequencyData" = type { %"class.llvm::ScaledNumber", i64 }
%"class.llvm::ScaledNumber" = type <{ i64, i16, [6 x i8] }>

; Function Attrs: mustprogress nounwind uwtable
define linkonce_odr hidden noundef nonnull align 8 dereferenceable(8) ptr @_ZNSt10_Head_baseILm0EPN4llvm22BlockFrequencyInfoImplINS0_17MachineBasicBlockEEELb0EE7_M_headERKS5_(ptr noundef nonnull align 8 dereferenceable(8) %0) #1 comdat align 2 {
  %2 = alloca ptr, align 8
  store ptr %0, ptr %2, align 8
  %3 = load ptr, ptr %2, align 8
  %4 = getelementptr inbounds nuw %"struct.std::_Head_base.23", ptr %3, i32 0, i32 0
  ret ptr %4
}

; Function Attrs: mustprogress nounwind uwtable
define linkonce_odr hidden noundef nonnull align 8 dereferenceable(8) ptr @_ZNSt11_Tuple_implILm0EJPN4llvm22BlockFrequencyInfoImplINS0_17MachineBasicBlockEEESt14default_deleteIS3_EEE7_M_headERKS7_(ptr noundef nonnull align 8 dereferenceable(8) %0) #1 comdat align 2 {
  %2 = alloca ptr, align 8
  store ptr %0, ptr %2, align 8
  %3 = load ptr, ptr %2, align 8
  %4 = call noundef nonnull align 8 dereferenceable(8) ptr @_ZNSt10_Head_baseILm0EPN4llvm22BlockFrequencyInfoImplINS0_17MachineBasicBlockEEELb0EE7_M_headERKS5_(ptr noundef nonnull align 8 dereferenceable(8) %3) #2
  ret ptr %4
}

; Function Attrs: mustprogress nounwind uwtable
define linkonce_odr noundef nonnull align 8 dereferenceable(8) ptr @_ZSt12__get_helperILm0EPN4llvm22BlockFrequencyInfoImplINS0_17MachineBasicBlockEEEJSt14default_deleteIS3_EEERKT0_RKSt11_Tuple_implIXT_EJS7_DpT1_EE(ptr noundef nonnull align 8 dereferenceable(8) %0) #1 comdat {
  %2 = alloca ptr, align 8
  store ptr %0, ptr %2, align 8
  %3 = load ptr, ptr %2, align 8
  %4 = call noundef nonnull align 8 dereferenceable(8) ptr @_ZNSt11_Tuple_implILm0EJPN4llvm22BlockFrequencyInfoImplINS0_17MachineBasicBlockEEESt14default_deleteIS3_EEE7_M_headERKS7_(ptr noundef nonnull align 8 dereferenceable(8) %3) #2
  ret ptr %4
}

; Function Attrs: mustprogress nounwind uwtable
define linkonce_odr noundef nonnull align 8 dereferenceable(8) ptr @_ZSt3getILm0EJPN4llvm22BlockFrequencyInfoImplINS0_17MachineBasicBlockEEESt14default_deleteIS3_EEERKNSt13tuple_elementIXT_ESt5tupleIJDpT0_EEE4typeERKSB_(ptr noundef nonnull align 8 dereferenceable(8) %0) #1 comdat {
  %2 = alloca ptr, align 8
  store ptr %0, ptr %2, align 8
  %3 = load ptr, ptr %2, align 8
  %4 = call noundef nonnull align 8 dereferenceable(8) ptr @_ZSt12__get_helperILm0EPN4llvm22BlockFrequencyInfoImplINS0_17MachineBasicBlockEEEJSt14default_deleteIS3_EEERKT0_RKSt11_Tuple_implIXT_EJS7_DpT1_EE(ptr noundef nonnull align 8 dereferenceable(8) %3) #2
  ret ptr %4
}

; Function Attrs: mustprogress nounwind uwtable
define linkonce_odr hidden noundef ptr @_ZNKSt15__uniq_ptr_implIN4llvm22BlockFrequencyInfoImplINS0_17MachineBasicBlockEEESt14default_deleteIS3_EE6_M_ptrEv(ptr noundef nonnull align 8 dereferenceable(8) %0) #1 comdat align 2 {
  %2 = alloca ptr, align 8
  store ptr %0, ptr %2, align 8
  %3 = load ptr, ptr %2, align 8
  %4 = getelementptr inbounds nuw %"class.std::__uniq_ptr_impl", ptr %3, i32 0, i32 0
  %5 = call noundef nonnull align 8 dereferenceable(8) ptr @_ZSt3getILm0EJPN4llvm22BlockFrequencyInfoImplINS0_17MachineBasicBlockEEESt14default_deleteIS3_EEERKNSt13tuple_elementIXT_ESt5tupleIJDpT0_EEE4typeERKSB_(ptr noundef nonnull align 8 dereferenceable(8) %4) #2
  %6 = load ptr, ptr %5, align 8
  ret ptr %6
}

; Function Attrs: mustprogress nounwind uwtable
define linkonce_odr hidden noundef nonnull align 8 dereferenceable(24) ptr @_ZNKSt6vectorIN4llvm26BlockFrequencyInfoImplBase13FrequencyDataESaIS2_EEixEm(ptr noundef nonnull align 8 dereferenceable(24) %0, i64 noundef %1) #1 comdat align 2 {
  %3 = alloca ptr, align 8
  %4 = alloca i64, align 8
  store ptr %0, ptr %3, align 8
  store i64 %1, ptr %4, align 8
  %5 = load ptr, ptr %3, align 8
  %6 = getelementptr inbounds nuw %"struct.std::_Vector_base.147", ptr %5, i32 0, i32 0
  %7 = getelementptr inbounds nuw %"struct.std::_Vector_base<llvm::BlockFrequencyInfoImplBase::FrequencyData, std::allocator<llvm::BlockFrequencyInfoImplBase::FrequencyData>>::_Vector_impl_data", ptr %6, i32 0, i32 0
  %8 = load ptr, ptr %7, align 8
  %9 = load i64, ptr %4, align 8
  %10 = getelementptr inbounds %"struct.llvm::BlockFrequencyInfoImplBase::FrequencyData", ptr %8, i64 %9
  ret ptr %10
}

; Function Attrs: mustprogress nounwind uwtable
define linkonce_odr hidden noundef ptr @_ZNKSt10unique_ptrIN4llvm22BlockFrequencyInfoImplINS0_17MachineBasicBlockEEESt14default_deleteIS3_EE3getEv(ptr noundef nonnull align 8 dereferenceable(8) %0) #1 comdat align 2 {
  %2 = alloca ptr, align 8
  store ptr %0, ptr %2, align 8
  %3 = load ptr, ptr %2, align 8
  %4 = getelementptr inbounds nuw %"class.std::unique_ptr", ptr %3, i32 0, i32 0
  %5 = call noundef ptr @_ZNKSt15__uniq_ptr_implIN4llvm22BlockFrequencyInfoImplINS0_17MachineBasicBlockEEESt14default_deleteIS3_EE6_M_ptrEv(ptr noundef nonnull align 8 dereferenceable(8) %4) #2
  ret ptr %5
}

; Function Attrs: mustprogress nounwind uwtable
define linkonce_odr hidden void @_ZN4llvm14BlockFrequencyC2Em(ptr noundef nonnull align 8 dereferenceable(8) %0, i64 noundef %1) unnamed_addr #1 comdat align 2 {
  %3 = alloca ptr, align 8
  %4 = alloca i64, align 8
  store ptr %0, ptr %3, align 8
  store i64 %1, ptr %4, align 8
  %5 = load ptr, ptr %3, align 8
  %6 = getelementptr inbounds nuw %"class.llvm::BlockFrequency", ptr %5, i32 0, i32 0
  %7 = load i64, ptr %4, align 8
  store i64 %7, ptr %6, align 8
  ret void
}

; Function Attrs: mustprogress nounwind uwtable
define linkonce_odr hidden i64 @_ZNK4llvm26BlockFrequencyInfoImplBase12getEntryFreqEv(ptr noundef nonnull align 8 dereferenceable(112) %0) #1 comdat align 2 {
  %2 = alloca %"class.llvm::BlockFrequency", align 8
  %3 = alloca ptr, align 8
  store ptr %0, ptr %3, align 8
  %4 = load ptr, ptr %3, align 8
  %5 = getelementptr inbounds nuw %"class.llvm::BlockFrequencyInfoImplBase", ptr %4, i32 0, i32 1
  %6 = call noundef nonnull align 8 dereferenceable(24) ptr @_ZNKSt6vectorIN4llvm26BlockFrequencyInfoImplBase13FrequencyDataESaIS2_EEixEm(ptr noundef nonnull align 8 dereferenceable(24) %5, i64 noundef 0) #2
  %7 = getelementptr inbounds nuw %"struct.llvm::BlockFrequencyInfoImplBase::FrequencyData", ptr %6, i32 0, i32 1
  %8 = load i64, ptr %7, align 8
  call void @_ZN4llvm14BlockFrequencyC2Em(ptr noundef nonnull align 8 dereferenceable(8) %2, i64 noundef %8)
  %9 = getelementptr inbounds nuw %"class.llvm::BlockFrequency", ptr %2, i32 0, i32 0
  %10 = load i64, ptr %9, align 8
  ret i64 %10
}

; Function Attrs: mustprogress nounwind uwtable
define linkonce_odr hidden noundef ptr @_ZNKSt10unique_ptrIN4llvm22BlockFrequencyInfoImplINS0_17MachineBasicBlockEEESt14default_deleteIS3_EEptEv(ptr noundef nonnull align 8 dereferenceable(8) %0) #1 comdat align 2 {
  %2 = alloca ptr, align 8
  store ptr %0, ptr %2, align 8
  %3 = load ptr, ptr %2, align 8
  %4 = call noundef ptr @_ZNKSt10unique_ptrIN4llvm22BlockFrequencyInfoImplINS0_17MachineBasicBlockEEESt14default_deleteIS3_EE3getEv(ptr noundef nonnull align 8 dereferenceable(8) %3) #2
  ret ptr %4
}

; Function Attrs: mustprogress nounwind uwtable
define linkonce_odr hidden noundef zeroext i1 @_ZNKSt10unique_ptrIN4llvm22BlockFrequencyInfoImplINS0_17MachineBasicBlockEEESt14default_deleteIS3_EEcvbEv(ptr noundef nonnull align 8 dereferenceable(8) %0) #1 comdat align 2 {
  %2 = alloca ptr, align 8
  store ptr %0, ptr %2, align 8
  %3 = load ptr, ptr %2, align 8
  %4 = call noundef ptr @_ZNKSt10unique_ptrIN4llvm22BlockFrequencyInfoImplINS0_17MachineBasicBlockEEESt14default_deleteIS3_EE3getEv(ptr noundef nonnull align 8 dereferenceable(8) %3) #2
  %5 = icmp eq ptr %4, null
  %6 = select i1 %5, i1 false, i1 true
  ret i1 %6
}

; Function Attrs: mustprogress nounwind uwtable
define dso_local i64 @_ZNK4llvm25MachineBlockFrequencyInfo12getEntryFreqEv(ptr noundef nonnull align 8 dereferenceable(8) %0) #1 align 2 {
  %2 = alloca %"class.llvm::BlockFrequency", align 8
  %3 = alloca ptr, align 8
  store ptr %0, ptr %3, align 8
  %4 = load ptr, ptr %3, align 8
  %5 = getelementptr inbounds nuw %"class.llvm::MachineBlockFrequencyInfo", ptr %4, i32 0, i32 0
  %6 = call noundef zeroext i1 @_ZNKSt10unique_ptrIN4llvm22BlockFrequencyInfoImplINS0_17MachineBasicBlockEEESt14default_deleteIS3_EEcvbEv(ptr noundef nonnull align 8 dereferenceable(8) %5) #2
  br i1 %6, label %7, label %12

7:                                                ; preds = %1
  %8 = getelementptr inbounds nuw %"class.llvm::MachineBlockFrequencyInfo", ptr %4, i32 0, i32 0
  %9 = call noundef ptr @_ZNKSt10unique_ptrIN4llvm22BlockFrequencyInfoImplINS0_17MachineBasicBlockEEESt14default_deleteIS3_EEptEv(ptr noundef nonnull align 8 dereferenceable(8) %8) #2
  %10 = call i64 @_ZNK4llvm26BlockFrequencyInfoImplBase12getEntryFreqEv(ptr noundef nonnull align 8 dereferenceable(112) %9)
  %11 = getelementptr inbounds nuw %"class.llvm::BlockFrequency", ptr %2, i32 0, i32 0
  store i64 %10, ptr %11, align 8
  br label %13

12:                                               ; preds = %1
  call void @_ZN4llvm14BlockFrequencyC2Em(ptr noundef nonnull align 8 dereferenceable(8) %2, i64 noundef 0)
  br label %13

13:                                               ; preds = %12, %7
  %14 = getelementptr inbounds nuw %"class.llvm::BlockFrequency", ptr %2, i32 0, i32 0
  %15 = load i64, ptr %14, align 8
  ret i64 %15
}